target datalayout = "e-m:e-p270:32:32-p271:32:32-p272:64:64-i64:64-i128:128-f80:128-n8:16:32:64-S128"
target triple = "x86_64-pc-linux-gnu"

%class.btSoftBodyConcaveCollisionAlgorithm = type { %class.btCollisionAlgorithm, i8, [7 x i8], %class.btSoftBodyTriangleCallback }
%class.btCollisionAlgorithm = type { ptr, ptr }
%class.btSoftBodyTriangleCallback = type <{ %class.btTriangleCallback, ptr, ptr, %class.btVector3, %class.btVector3, ptr, ptr, ptr, float, [4 x i8], %class.btHashMap, i32, [4 x i8] }>
%class.btTriangleCallback = type { ptr }
%class.btVector3 = type { [4 x float] }
%class.btHashMap = type { %class.btAlignedObjectArray, %class.btAlignedObjectArray, %class.btAlignedObjectArray.0, %class.btAlignedObjectArray.2 }
%class.btAlignedObjectArray = type <{ [4 x i8], i32, i32, [4 x i8], ptr, i8, [7 x i8] }>
%class.btAlignedObjectArray.0 = type <{ [4 x i8], i32, i32, [4 x i8], ptr, i8, [7 x i8] }>
%class.btAlignedObjectArray.2 = type <{ [4 x i8], i32, i32, [4 x i8], ptr, i8, [7 x i8] }>
%struct.btCollisionObjectWrapper = type { ptr, ptr, ptr, ptr, ptr, i32, i32 }
%class.btCollisionShape = type { ptr, i32, ptr, i32, i32 }

; Function Attrs: inlinehint mustprogress nounwind uwtable
define linkonce_odr dso_local noundef zeroext i1 @_ZN17btBroadphaseProxy9isConcaveEi(i32 noundef %0) #5 comdat align 2 {
  %2 = alloca i32, align 4
  store i32 %0, ptr %2, align 4, !tbaa !9
  %3 = load i32, ptr %2, align 4, !tbaa !9
  %4 = icmp sgt i32 %3, 20
  br i1 %4, label %5, label %8

5:                                                ; preds = %1
  %6 = load i32, ptr %2, align 4, !tbaa !9
  %7 = icmp slt i32 %6, 30
  br label %8

8:                                                ; preds = %5, %1
  %9 = phi i1 [ false, %1 ], [ %7, %5 ]
  ret i1 %9
}

; Function Attrs: mustprogress nounwind uwtable
define linkonce_odr dso_local noundef i32 @_ZNK16btCollisionShape12getShapeTypeEv(ptr noundef nonnull align 8 dereferenceable(32) %0) #1 comdat align 2 {
  %2 = alloca ptr, align 8
  store ptr %0, ptr %2, align 8, !tbaa !169
  %3 = load ptr, ptr %2, align 8
  %4 = getelementptr inbounds nuw %class.btCollisionShape, ptr %3, i32 0, i32 1
  %5 = load i32, ptr %4, align 8, !tbaa !258
  ret i32 %5
}

; Function Attrs: inlinehint mustprogress nounwind uwtable
define linkonce_odr dso_local noundef nonnull align 4 dereferenceable(16) ptr @_ZNK26btSoftBodyTriangleCallback10getAabbMaxEv(ptr noundef nonnull align 8 dereferenceable(220) %0) #5 comdat align 2 {
  %2 = alloca ptr, align 8
  store ptr %0, ptr %2, align 8, !tbaa !51
  %3 = load ptr, ptr %2, align 8
  %4 = getelementptr inbounds nuw %class.btSoftBodyTriangleCallback, ptr %3, i32 0, i32 4
  ret ptr %4
}

; Function Attrs: inlinehint mustprogress nounwind uwtable
define linkonce_odr dso_local noundef nonnull align 4 dereferenceable(16) ptr @_ZNK26btSoftBodyTriangleCallback10getAabbMinEv(ptr noundef nonnull align 8 dereferenceable(220) %0) #5 comdat align 2 {
  %2 = alloca ptr, align 8
  store ptr %0, ptr %2, align 8, !tbaa !51
  %3 = load ptr, ptr %2, align 8
  %4 = getelementptr inbounds nuw %class.btSoftBodyTriangleCallback, ptr %3, i32 0, i32 3
  ret ptr %4
}

; Function Attrs: inlinehint mustprogress uwtable
define linkonce_odr dso_local noundef zeroext i1 @_ZNK16btCollisionShape9isConcaveEv(ptr noundef nonnull align 8 dereferenceable(32) %0) #6 comdat align 2 {
  %2 = alloca ptr, align 8
  store ptr %0, ptr %2, align 8, !tbaa !169
  %3 = load ptr, ptr %2, align 8
  %4 = call noundef i32 @_ZNK16btCollisionShape12getShapeTypeEv(ptr noundef nonnull align 8 dereferenceable(32) %3)
  %5 = call noundef zeroext i1 @_ZN17btBroadphaseProxy9isConcaveEi(i32 noundef %4)
  ret i1 %5
}

; Function Attrs: inlinehint mustprogress nounwind uwtable
define linkonce_odr dso_local noundef ptr @_ZNK24btCollisionObjectWrapper17getCollisionShapeEv(ptr noundef nonnull align 8 dereferenceable(48) %0) #5 comdat align 2 {
  %2 = alloca ptr, align 8
  store ptr %0, ptr %2, align 8, !tbaa !16
  %3 = load ptr, ptr %2, align 8
  %4 = getelementptr inbounds nuw %struct.btCollisionObjectWrapper, ptr %3, i32 0, i32 1
  %5 = load ptr, ptr %4, align 8, !tbaa !204
  ret ptr %5
}

; Function Attrs: mustprogress uwtable
define dso_local void @_ZN35btSoftBodyConcaveCollisionAlgorithm16processCollisionEPK24btCollisionObjectWrapperS2_RK16btDispatcherInfoP16btManifoldResult(ptr noundef nonnull align 8 dereferenceable(248) %0, ptr noundef %1, ptr noundef %2, ptr noundef nonnull align 8 dereferenceable(49) %3, ptr noundef %4) unnamed_addr #2 align 2 {
  %6 = alloca ptr, align 8
  %7 = alloca ptr, align 8
  %8 = alloca ptr, align 8
  %9 = alloca ptr, align 8
  %10 = alloca ptr, align 8
  %11 = alloca ptr, align 8
  %12 = alloca ptr, align 8
  %13 = alloca float, align 4
  store ptr %0, ptr %6, align 8, !tbaa !12
  store ptr %1, ptr %7, align 8, !tbaa !16
  store ptr %2, ptr %8, align 8, !tbaa !16
  store ptr %3, ptr %9, align 8, !tbaa !211
  store ptr %4, ptr %10, align 8, !tbaa !212
  %14 = load ptr, ptr %6, align 8
  call void @llvm.lifetime.start.p0(i64 8, ptr %11) #14
  %15 = getelementptr inbounds nuw %class.btSoftBodyConcaveCollisionAlgorithm, ptr %14, i32 0, i32 1
  %16 = load i8, ptr %15, align 8, !tbaa !24, !range !22, !noundef !23
  %17 = trunc i8 %16 to i1
  br i1 %17, label %18, label %20

18:                                               ; preds = %5
  %19 = load ptr, ptr %7, align 8, !tbaa !16
  br label %22

20:                                               ; preds = %5
  %21 = load ptr, ptr %8, align 8, !tbaa !16
  br label %22

22:                                               ; preds = %20, %18
  %23 = phi ptr [ %19, %18 ], [ %21, %20 ]
  store ptr %23, ptr %11, align 8, !tbaa !16
  %24 = load ptr, ptr %11, align 8, !tbaa !16
  %25 = call noundef ptr @_ZNK24btCollisionObjectWrapper17getCollisionShapeEv(ptr noundef nonnull align 8 dereferenceable(48) %24)
  %26 = call noundef zeroext i1 @_ZNK16btCollisionShape9isConcaveEv(ptr noundef nonnull align 8 dereferenceable(32) %25)
  br i1 %26, label %27, label %49

27:                                               ; preds = %22
  call void @llvm.lifetime.start.p0(i64 8, ptr %12) #14
  %28 = load ptr, ptr %11, align 8, !tbaa !16
  %29 = call noundef ptr @_ZNK24btCollisionObjectWrapper17getCollisionShapeEv(ptr noundef nonnull align 8 dereferenceable(48) %28)
  store ptr %29, ptr %12, align 8, !tbaa !216
  call void @llvm.lifetime.start.p0(i64 4, ptr %13) #14
  %30 = load ptr, ptr %12, align 8, !tbaa !216
  %31 = load ptr, ptr %30, align 8, !tbaa !20
  %32 = getelementptr inbounds ptr, ptr %31, i64 12
  %33 = load ptr, ptr %32, align 8
  %34 = call noundef float %33(ptr noundef nonnull align 8 dereferenceable(36) %30)
  store float %34, ptr %13, align 4, !tbaa !182
  %35 = getelementptr inbounds nuw %class.btSoftBodyConcaveCollisionAlgorithm, ptr %14, i32 0, i32 3
  %36 = load float, ptr %13, align 4, !tbaa !182
  %37 = load ptr, ptr %11, align 8, !tbaa !16
  %38 = load ptr, ptr %9, align 8, !tbaa !211
  %39 = load ptr, ptr %10, align 8, !tbaa !212
  call void @_ZN26btSoftBodyTriangleCallback22setTimeStepAndCountersEfPK24btCollisionObjectWrapperRK16btDispatcherInfoP16btManifoldResult(ptr noundef nonnull align 8 dereferenceable(220) %35, float noundef %36, ptr noundef %37, ptr noundef nonnull align 8 dereferenceable(49) %38, ptr noundef %39)
  %40 = load ptr, ptr %12, align 8, !tbaa !216
  %41 = getelementptr inbounds nuw %class.btSoftBodyConcaveCollisionAlgorithm, ptr %14, i32 0, i32 3
  %42 = getelementptr inbounds nuw %class.btSoftBodyConcaveCollisionAlgorithm, ptr %14, i32 0, i32 3
  %43 = call noundef nonnull align 4 dereferenceable(16) ptr @_ZNK26btSoftBodyTriangleCallback10getAabbMinEv(ptr noundef nonnull align 8 dereferenceable(220) %42)
  %44 = getelementptr inbounds nuw %class.btSoftBodyConcaveCollisionAlgorithm, ptr %14, i32 0, i32 3
  %45 = call noundef nonnull align 4 dereferenceable(16) ptr @_ZNK26btSoftBodyTriangleCallback10getAabbMaxEv(ptr noundef nonnull align 8 dereferenceable(220) %44)
  %46 = load ptr, ptr %40, align 8, !tbaa !20
  %47 = getelementptr inbounds ptr, ptr %46, i64 16
  %48 = load ptr, ptr %47, align 8
  call void %48(ptr noundef nonnull align 8 dereferenceable(36) %40, ptr noundef %41, ptr noundef nonnull align 4 dereferenceable(16) %43, ptr noundef nonnull align 4 dereferenceable(16) %45)
  call void @llvm.lifetime.end.p0(i64 4, ptr %13) #14
  call void @llvm.lifetime.end.p0(i64 8, ptr %12) #14
  br label %49

49:                                               ; preds = %27, %22
  call void @llvm.lifetime.end.p0(i64 8, ptr %11) #14
  ret void
}