; Function Attrs: mustprogress uwtable
define dso_local void @_ZN35btSoftBodyConcaveCollisionAlgorithm16processCollisionEPK24btCollisionObjectWrapperS2_RK16btDispatcherInfoP16btManifoldResult(ptr noundef nonnull align 8 dereferenceable(248) %0, ptr noundef readonly captures(none) %1, ptr noundef readonly captures(none) %2, ptr noundef nonnull align 8 dereferenceable(49) %3, ptr noundef %4) unnamed_addr #0 align 2 {
  %6 = getelementptr inbounds nuw i8, ptr %0, i64 16
  %7 = load i8, ptr %6, align 8, !tbaa !7, !range !167, !noundef !168
  %8 = trunc nuw i8 %7 to i1
  %9 = select i1 %8, ptr %1, ptr %2
  %10 = getelementptr inbounds nuw i8, ptr %9, i64 8
  %11 = load ptr, ptr %10, align 8, !tbaa !182
  %12 = getelementptr inbounds nuw i8, ptr %11, i64 8
  %13 = load i32, ptr %12, align 8, !tbaa !204
  %14 = add i32 %13, -21
  %15 = icmp ult i32 %14, 9
  br i1 %15, label %16, label %27

16:                                               ; preds = %5
  %17 = load ptr, ptr %11, align 8, !tbaa !4
  %18 = getelementptr inbounds nuw i8, ptr %17, i64 96
  %19 = load ptr, ptr %18, align 8
  %20 = tail call noundef float %19(ptr noundef nonnull align 8 dereferenceable(36) %11)
  %21 = getelementptr inbounds nuw i8, ptr %0, i64 24
  tail call void @_ZN26btSoftBodyTriangleCallback22setTimeStepAndCountersEfPK24btCollisionObjectWrapperRK16btDispatcherInfoP16btManifoldResult(ptr noundef nonnull align 8 dereferenceable(220) %21, float noundef %20, ptr noundef nonnull %9, ptr noundef nonnull align 8 dereferenceable(49) %3, ptr noundef %4)
  %22 = getelementptr inbounds nuw i8, ptr %0, i64 48
  %23 = getelementptr inbounds nuw i8, ptr %0, i64 64
  %24 = load ptr, ptr %11, align 8, !tbaa !4
  %25 = getelementptr inbounds nuw i8, ptr %24, i64 128
  %26 = load ptr, ptr %25, align 8
  tail call void %26(ptr noundef nonnull align 8 dereferenceable(36) %11, ptr noundef nonnull %21, ptr noundef nonnull align 4 dereferenceable(16) %22, ptr noundef nonnull align 4 dereferenceable(16) %23)
  br label %27

27:                                               ; preds = %16, %5
  ret void
}